target datalayout = "e-m:e-p270:32:32-p271:32:32-p272:64:64-i64:64-i128:128-f80:128-n8:16:32:64-S128"
target triple = "x86_64-pc-linux-gnu"

%struct.option = type { i32, i32, ptr, ptr, ptr, ptr, i32, ptr, i64, ptr, i64, ptr }

@reflog_show_usage = internal constant [2 x ptr] [ptr @.str.5, ptr null], align 16
@the_repository = external global ptr, align 8

; Function Attrs: nounwind uwtable
define internal i32 @cmd_reflog_show(i32 noundef %0, ptr noundef %1, ptr noundef %2, ptr noundef %3) #0 {
  %5 = alloca i32, align 4
  %6 = alloca ptr, align 8
  %7 = alloca ptr, align 8
  %8 = alloca ptr, align 8
  %9 = alloca [1 x %struct.option], align 16
  store i32 %0, ptr %5, align 4, !tbaa !4
  store ptr %1, ptr %6, align 8, !tbaa !8
  store ptr %2, ptr %7, align 8, !tbaa !11
  store ptr %3, ptr %8, align 8, !tbaa !13
  call void @llvm.lifetime.start.p0(i64 88, ptr %9) #9
  call void @llvm.memset.p0.i64(ptr align 16 %9, i8 0, i64 88, i1 false)
  %10 = load i32, ptr %5, align 4, !tbaa !4
  %11 = load ptr, ptr %6, align 8, !tbaa !8
  %12 = load ptr, ptr %7, align 8, !tbaa !11
  %13 = getelementptr inbounds [1 x %struct.option], ptr %9, i64 0, i64 0
  %14 = call i32 @parse_options(i32 noundef %10, ptr noundef %11, ptr noundef %12, ptr noundef %13, ptr noundef @reflog_show_usage, i32 noundef 13)
  %15 = load i32, ptr %5, align 4, !tbaa !4
  %16 = load ptr, ptr %6, align 8, !tbaa !8
  %17 = load ptr, ptr %7, align 8, !tbaa !11
  %18 = load ptr, ptr @the_repository, align 8, !tbaa !13
  %19 = call i32 @cmd_log_reflog(i32 noundef %15, ptr noundef %16, ptr noundef %17, ptr noundef %18)
  call void @llvm.lifetime.end.p0(i64 88, ptr %9) #9
  ret i32 %19
}