; Function Attrs: nounwind uwtable
define internal i32 @cmd_reflog_show(i32 noundef %0, ptr noundef %1, ptr noundef %2, ptr readnone captures(none) %3) #0 {
  %5 = alloca [1 x %struct.option], align 16
  call void @llvm.lifetime.start.p0(i64 88, ptr nonnull %5) #13
  call void @llvm.memset.p0.i64(ptr noundef nonnull align 16 dereferenceable(88) %5, i8 0, i64 88, i1 false)
  %6 = call i32 @parse_options(i32 noundef %0, ptr noundef %1, ptr noundef %2, ptr noundef nonnull %5, ptr noundef nonnull @reflog_show_usage, i32 noundef 13) #13
  %7 = load ptr, ptr @the_repository, align 8, !tbaa !17
  %8 = call i32 @cmd_log_reflog(i32 noundef %0, ptr noundef %1, ptr noundef %2, ptr noundef %7) #13
  call void @llvm.lifetime.end.p0(i64 88, ptr nonnull %5) #13
  ret i32 %8
}